; Function Attrs: mustprogress uwtable
define void @_ZN10open_spiel9dou_dizhu10RankStringB5cxx11Ei(ptr dead_on_unwind noalias writable sret(%"class.std::__cxx11::basic_string") align 8 %0, i32 noundef %1) local_unnamed_addr #4 personality ptr @__gxx_personality_v0 {
  %3 = alloca %"class.std::allocator", align 1
  %4 = alloca %"class.std::allocator", align 1
  %5 = alloca %"class.std::allocator", align 1
  %6 = alloca %"class.std::__cxx11::basic_string", align 8
  %7 = alloca %"class.std::allocator", align 1
  %8 = icmp slt i32 %1, 13
  br i1 %8, label %9, label %18

9:                                                ; preds = %2
  %10 = sext i32 %1 to i64
  %11 = getelementptr inbounds [14 x i8], ptr @_ZN10open_spiel9dou_dizhuL9kRankCharE, i64 0, i64 %10
  %12 = load i8, ptr %11, align 1
  call void @_ZNSaIcEC1Ev(ptr noundef nonnull align 1 dereferenceable(1) %3) #19
  %13 = invoke noundef ptr @_ZNSt7__cxx1112basic_stringIcSt11char_traitsIcESaIcEE13_M_local_dataEv(ptr noundef nonnull align 8 dereferenceable(32) %0)
          to label %.noexc unwind label %16

.noexc:                                           ; preds = %9
  invoke void @_ZNSt7__cxx1112basic_stringIcSt11char_traitsIcESaIcEE12_Alloc_hiderC1EPcRKS3_(ptr noundef nonnull align 8 dereferenceable(8) %0, ptr noundef %13, ptr noundef nonnull align 1 dereferenceable(1) %3)
          to label %.noexc12 unwind label %16

.noexc12:                                         ; preds = %.noexc
  invoke void @_ZNSt7__cxx1112basic_stringIcSt11char_traitsIcESaIcEE12_M_constructEmc(ptr noundef nonnull align 8 dereferenceable(32) %0, i64 noundef 1, i8 noundef signext %12)
          to label %_ZNSt7__cxx1112basic_stringIcSt11char_traitsIcESaIcEEC2IS3_EEmcRKS3_.exit unwind label %14

14:                                               ; preds = %.noexc12
  %15 = landingpad { ptr, i32 }
          cleanup
  call void @_ZNSaIcED2Ev(ptr noundef nonnull align 1 dereferenceable(1) %0) #19
  br label %.body

16:                                               ; preds = %.noexc, %9
  %17 = landingpad { ptr, i32 }
          cleanup
  br label %.body

18:                                               ; preds = %2
  switch i32 %1, label %31 [
    i32 13, label %19
    i32 14, label %25
  ]

19:                                               ; preds = %18
  call void @_ZNSaIcEC1Ev(ptr noundef nonnull align 1 dereferenceable(1) %4) #19
  %20 = invoke noundef ptr @_ZNSt7__cxx1112basic_stringIcSt11char_traitsIcESaIcEE13_M_local_dataEv(ptr noundef nonnull align 8 dereferenceable(32) %0)
          to label %.noexc13 unwind label %23

.noexc13:                                         ; preds = %19
  invoke void @_ZNSt7__cxx1112basic_stringIcSt11char_traitsIcESaIcEE12_Alloc_hiderC1EPcRKS3_(ptr noundef nonnull align 8 dereferenceable(8) %0, ptr noundef %20, ptr noundef nonnull align 1 dereferenceable(1) %4)
          to label %.noexc14 unwind label %23

.noexc14:                                         ; preds = %.noexc13
  invoke void @_ZNSt7__cxx1112basic_stringIcSt11char_traitsIcESaIcEE12_M_constructIPKcEEvT_S8_St20forward_iterator_tag(ptr noundef nonnull align 8 dereferenceable(32) %0, ptr noundef nonnull @.str.1, ptr noundef nonnull getelementptr inbounds (i8, ptr @.str.1, i64 5))
          to label %_ZNSt7__cxx1112basic_stringIcSt11char_traitsIcESaIcEEC2IS3_EEmcRKS3_.exit unwind label %21

21:                                               ; preds = %.noexc14
  %22 = landingpad { ptr, i32 }
          cleanup
  call void @_ZNSaIcED2Ev(ptr noundef nonnull align 1 dereferenceable(1) %0) #19
  br label %.body

23:                                               ; preds = %.noexc13, %19
  %24 = landingpad { ptr, i32 }
          cleanup
  br label %.body

25:                                               ; preds = %18
  call void @_ZNSaIcEC1Ev(ptr noundef nonnull align 1 dereferenceable(1) %5) #19
  %26 = invoke noundef ptr @_ZNSt7__cxx1112basic_stringIcSt11char_traitsIcESaIcEE13_M_local_dataEv(ptr noundef nonnull align 8 dereferenceable(32) %0)
          to label %.noexc17 unwind label %29

.noexc17:                                         ; preds = %25
  invoke void @_ZNSt7__cxx1112basic_stringIcSt11char_traitsIcESaIcEE12_Alloc_hiderC1EPcRKS3_(ptr noundef nonnull align 8 dereferenceable(8) %0, ptr noundef %26, ptr noundef nonnull align 1 dereferenceable(1) %5)
          to label %.noexc18 unwind label %29

.noexc18:                                         ; preds = %.noexc17
  invoke void @_ZNSt7__cxx1112basic_stringIcSt11char_traitsIcESaIcEE12_M_constructIPKcEEvT_S8_St20forward_iterator_tag(ptr noundef nonnull align 8 dereferenceable(32) %0, ptr noundef nonnull @.str.2, ptr noundef nonnull getelementptr inbounds (i8, ptr @.str.2, i64 4))
          to label %_ZNSt7__cxx1112basic_stringIcSt11char_traitsIcESaIcEEC2IS3_EEmcRKS3_.exit unwind label %27

27:                                               ; preds = %.noexc18
  %28 = landingpad { ptr, i32 }
          cleanup
  call void @_ZNSaIcED2Ev(ptr noundef nonnull align 1 dereferenceable(1) %0) #19
  br label %.body

29:                                               ; preds = %.noexc17, %25
  %30 = landingpad { ptr, i32 }
          cleanup
  br label %.body

31:                                               ; preds = %18
  call void @_ZNSaIcEC1Ev(ptr noundef nonnull align 1 dereferenceable(1) %7) #19
  invoke void @_ZNSt7__cxx1112basic_stringIcSt11char_traitsIcESaIcEEC2IS3_EEPKcRKS3_(ptr noundef nonnull align 8 dereferenceable(32) %6, ptr noundef nonnull @.str.3, ptr noundef nonnull align 1 dereferenceable(1) %7)
          to label %32 unwind label %34

32:                                               ; preds = %31
  invoke void @_ZN10open_spiel15SpielFatalErrorERKNSt7__cxx1112basic_stringIcSt11char_traitsIcESaIcEEE(ptr noundef nonnull align 8 dereferenceable(32) %6) #20
          to label %33 unwind label %36

33:                                               ; preds = %32
  unreachable

34:                                               ; preds = %31
  %35 = landingpad { ptr, i32 }
          cleanup
  br label %.body

36:                                               ; preds = %32
  %37 = landingpad { ptr, i32 }
          cleanup
  call void @_ZNSt7__cxx1112basic_stringIcSt11char_traitsIcESaIcEED1Ev(ptr noundef nonnull align 8 dereferenceable(32) %6) #19
  br label %.body

_ZNSt7__cxx1112basic_stringIcSt11char_traitsIcESaIcEEC2IS3_EEmcRKS3_.exit: ; preds = %.noexc18, %.noexc14, %.noexc12
  %.sink = phi ptr [ %3, %.noexc12 ], [ %4, %.noexc14 ], [ %5, %.noexc18 ]
  call void @_ZNSaIcED1Ev(ptr noundef nonnull align 1 dereferenceable(1) %.sink) #19
  ret void

.body:                                            ; preds = %34, %36, %29, %27, %23, %21, %16, %14
  %.sink22 = phi ptr [ %3, %14 ], [ %3, %16 ], [ %4, %21 ], [ %4, %23 ], [ %5, %27 ], [ %5, %29 ], [ %7, %36 ], [ %7, %34 ]
  %.pn10 = phi { ptr, i32 } [ %15, %14 ], [ %17, %16 ], [ %22, %21 ], [ %24, %23 ], [ %28, %27 ], [ %30, %29 ], [ %37, %36 ], [ %35, %34 ]
  call void @_ZNSaIcED1Ev(ptr noundef nonnull align 1 dereferenceable(1) %.sink22) #19
  resume { ptr, i32 } %.pn10
}